; ModuleID = '57/2137.c'
source_filename = "57/2137.c"
target datalayout = "e-m:e-p270:32:32-p271:32:32-p272:64:64-i64:64-f80:128-n8:16:32:64-S128"
target triple = "x86_64-pc-linux-gnu"

@.str = private unnamed_addr constant [4 x i8] c"%d\0A\00", align 1

; Function Attrs: noinline nounwind uwtable
define dso_local void @main() #0 {
  %1 = alloca [50 x [32 x i8]], align 16
  %2 = alloca i32, align 4
  %3 = alloca i32, align 4
  %4 = alloca i32, align 4
  %5 = call i32 (i8*, ...) @__isoc99_scanf(i8* getelementptr inbounds ([4 x i8], [4 x i8]* @.str, i64 0, i64 0), i32* %2)
  store i32 0, i32* %3, align 4
  br label %6

6:                                                ; preds = %16, %0
  %7 = load i32, i32* %3, align 4
  %8 = load i32, i32* %2, align 4
  %9 = icmp slt i32 %7, %8
  br i1 %9, label %10, label %19

10:                                               ; preds = %6
  %11 = load i32, i32* %3, align 4
  %12 = sext i32 %11 to i64
  %13 = getelementptr inbounds [50 x [32 x i8]], [50 x [32 x i8]]* %1, i64 0, i64 %12
  %14 = getelementptr inbounds [32 x i8], [32 x i8]* %13, i64 0, i64 0
  %15 = call i32 (i8*, ...) bitcast (i32 (...)* @gets to i32 (i8*, ...)*)(i8* %14)
  br label %16

16:                                               ; preds = %10
  %17 = load i32, i32* %3, align 4
  %18 = add nsw i32 %17, 1
  store i32 %18, i32* %3, align 4
  br label %6

19:                                               ; preds = %6
  store i32 0, i32* %3, align 4
  br label %20

20:                                               ; preds = %142, %19
  %21 = load i32, i32* %3, align 4
  %22 = load i32, i32* %2, align 4
  %23 = icmp slt i32 %21, %22
  br i1 %23, label %24, label %145

24:                                               ; preds = %20
  %25 = load i32, i32* %3, align 4
  %26 = sext i32 %25 to i64
  %27 = getelementptr inbounds [50 x [32 x i8]], [50 x [32 x i8]]* %1, i64 0, i64 %26
  %28 = getelementptr inbounds [32 x i8], [32 x i8]* %27, i64 0, i64 0
  %29 = call i64 @strlen(i8* %28) #3
  %30 = trunc i64 %29 to i32
  store i32 %30, i32* %4, align 4
  %31 = load i32, i32* %4, align 4
  %32 = icmp sgt i32 %31, 2
  br i1 %32, label %33, label %141

33:                                               ; preds = %24
  %34 = load i32, i32* %3, align 4
  %35 = sext i32 %34 to i64
  %36 = getelementptr inbounds [50 x [32 x i8]], [50 x [32 x i8]]* %1, i64 0, i64 %35
  %37 = load i32, i32* %4, align 4
  %38 = sub nsw i32 %37, 1
  %39 = sext i32 %38 to i64
  %40 = getelementptr inbounds [32 x i8], [32 x i8]* %36, i64 0, i64 %39
  %41 = load i8, i8* %40, align 1
  %42 = sext i8 %41 to i32
  %43 = icmp eq i32 %42, 114
  br i1 %43, label %44, label %63

44:                                               ; preds = %33
  %45 = load i32, i32* %3, align 4
  %46 = sext i32 %45 to i64
  %47 = getelementptr inbounds [50 x [32 x i8]], [50 x [32 x i8]]* %1, i64 0, i64 %46
  %48 = load i32, i32* %4, align 4
  %49 = sub nsw i32 %48, 2
  %50 = sext i32 %49 to i64
  %51 = getelementptr inbounds [32 x i8], [32 x i8]* %47, i64 0, i64 %50
  %52 = load i8, i8* %51, align 1
  %53 = sext i8 %52 to i32
  %54 = icmp eq i32 %53, 101
  br i1 %54, label %55, label %63

55:                                               ; preds = %44
  %56 = load i32, i32* %3, align 4
  %57 = sext i32 %56 to i64
  %58 = getelementptr inbounds [50 x [32 x i8]], [50 x [32 x i8]]* %1, i64 0, i64 %57
  %59 = load i32, i32* %4, align 4
  %60 = sub nsw i32 %59, 2
  %61 = sext i32 %60 to i64
  %62 = getelementptr inbounds [32 x i8], [32 x i8]* %58, i64 0, i64 %61
  store i8 0, i8* %62, align 1
  br label %140

63:                                               ; preds = %44, %33
  %64 = load i32, i32* %3, align 4
  %65 = sext i32 %64 to i64
  %66 = getelementptr inbounds [50 x [32 x i8]], [50 x [32 x i8]]* %1, i64 0, i64 %65
  %67 = load i32, i32* %4, align 4
  %68 = sub nsw i32 %67, 1
  %69 = sext i32 %68 to i64
  %70 = getelementptr inbounds [32 x i8], [32 x i8]* %66, i64 0, i64 %69
  %71 = load i8, i8* %70, align 1
  %72 = sext i8 %71 to i32
  %73 = icmp eq i32 %72, 121
  br i1 %73, label %74, label %93

74:                                               ; preds = %63
  %75 = load i32, i32* %3, align 4
  %76 = sext i32 %75 to i64
  %77 = getelementptr inbounds [50 x [32 x i8]], [50 x [32 x i8]]* %1, i64 0, i64 %76
  %78 = load i32, i32* %4, align 4
  %79 = sub nsw i32 %78, 2
  %80 = sext i32 %79 to i64
  %81 = getelementptr inbounds [32 x i8], [32 x i8]* %77, i64 0, i64 %80
  %82 = load i8, i8* %81, align 1
  %83 = sext i8 %82 to i32
  %84 = icmp eq i32 %83, 108
  br i1 %84, label %85, label %93

85:                                               ; preds = %74
  %86 = load i32, i32* %3, align 4
  %87 = sext i32 %86 to i64
  %88 = getelementptr inbounds [50 x [32 x i8]], [50 x [32 x i8]]* %1, i64 0, i64 %87
  %89 = load i32, i32* %4, align 4
  %90 = sub nsw i32 %89, 2
  %91 = sext i32 %90 to i64
  %92 = getelementptr inbounds [32 x i8], [32 x i8]* %88, i64 0, i64 %91
  store i8 0, i8* %92, align 1
  br label %139

93:                                               ; preds = %74, %63
  %94 = load i32, i32* %4, align 4
  %95 = icmp sgt i32 %94, 3
  br i1 %95, label %96, label %138

96:                                               ; preds = %93
  %97 = load i32, i32* %3, align 4
  %98 = sext i32 %97 to i64
  %99 = getelementptr inbounds [50 x [32 x i8]], [50 x [32 x i8]]* %1, i64 0, i64 %98
  %100 = load i32, i32* %4, align 4
  %101 = sub nsw i32 %100, 1
  %102 = sext i32 %101 to i64
  %103 = getelementptr inbounds [32 x i8], [32 x i8]* %99, i64 0, i64 %102
  %104 = load i8, i8* %103, align 1
  %105 = sext i8 %104 to i32
  %106 = icmp eq i32 %105, 103
  br i1 %106, label %107, label %137

107:                                              ; preds = %96
  %108 = load i32, i32* %3, align 4
  %109 = sext i32 %108 to i64
  %110 = getelementptr inbounds [50 x [32 x i8]], [50 x [32 x i8]]* %1, i64 0, i64 %109
  %111 = load i32, i32* %4, align 4
  %112 = sub nsw i32 %111, 2
  %113 = sext i32 %112 to i64
  %114 = getelementptr inbounds [32 x i8], [32 x i8]* %110, i64 0, i64 %113
  %115 = load i8, i8* %114, align 1
  %116 = sext i8 %115 to i32
  %117 = icmp eq i32 %116, 110
  br i1 %117, label %118, label %137

118:                                              ; preds = %107
  %119 = load i32, i32* %3, align 4
  %120 = sext i32 %119 to i64
  %121 = getelementptr inbounds [50 x [32 x i8]], [50 x [32 x i8]]* %1, i64 0, i64 %120
  %122 = load i32, i32* %4, align 4
  %123 = sub nsw i32 %122, 3
  %124 = sext i32 %123 to i64
  %125 = getelementptr inbounds [32 x i8], [32 x i8]* %121, i64 0, i64 %124
  %126 = load i8, i8* %125, align 1
  %127 = sext i8 %126 to i32
  %128 = icmp eq i32 %127, 105
  br i1 %128, label %129, label %137

129:                                              ; preds = %118
  %130 = load i32, i32* %3, align 4
  %131 = sext i32 %130 to i64
  %132 = getelementptr inbounds [50 x [32 x i8]], [50 x [32 x i8]]* %1, i64 0, i64 %131
  %133 = load i32, i32* %4, align 4
  %134 = sub nsw i32 %133, 3
  %135 = sext i32 %134 to i64
  %136 = getelementptr inbounds [32 x i8], [32 x i8]* %132, i64 0, i64 %135
  store i8 0, i8* %136, align 1
  br label %137

137:                                              ; preds = %129, %118, %107, %96
  br label %138

138:                                              ; preds = %137, %93
  br label %139

139:                                              ; preds = %138, %85
  br label %140

140:                                              ; preds = %139, %55
  br label %141

141:                                              ; preds = %140, %24
  br label %142

142:                                              ; preds = %141
  %143 = load i32, i32* %3, align 4
  %144 = add nsw i32 %143, 1
  store i32 %144, i32* %3, align 4
  br label %20

145:                                              ; preds = %20
  store i32 0, i32* %3, align 4
  br label %146

146:                                              ; preds = %156, %145
  %147 = load i32, i32* %3, align 4
  %148 = load i32, i32* %2, align 4
  %149 = icmp slt i32 %147, %148
  br i1 %149, label %150, label %159

150:                                              ; preds = %146
  %151 = load i32, i32* %3, align 4
  %152 = sext i32 %151 to i64
  %153 = getelementptr inbounds [50 x [32 x i8]], [50 x [32 x i8]]* %1, i64 0, i64 %152
  %154 = getelementptr inbounds [32 x i8], [32 x i8]* %153, i64 0, i64 0
  %155 = call i32 @puts(i8* %154)
  br label %156

156:                                              ; preds = %150
  %157 = load i32, i32* %3, align 4
  %158 = add nsw i32 %157, 1
  store i32 %158, i32* %3, align 4
  br label %146

159:                                              ; preds = %146
  ret void
}

declare dso_local i32 @__isoc99_scanf(i8*, ...) #1

declare dso_local i32 @gets(...) #1

; Function Attrs: nounwind readonly
declare dso_local i64 @strlen(i8*) #2

declare dso_local i32 @puts(i8*) #1


!llvm.module.flags = !{!0}
!llvm.ident = !{!1}

!0 = !{i32 1, !"wchar_size", i32 4}
!1 = !{!"clang version 10.0.0-4ubuntu1 "}
