; ModuleID = 'source-C-CXX/56/2137.c'
source_filename = "source-C-CXX/56/2137.c"
target datalayout = "e-m:e-p270:32:32-p271:32:32-p272:64:64-i64:64-f80:128-n8:16:32:64-S128"
target triple = "x86_64-pc-linux-gnu"

@.str = private unnamed_addr constant [4 x i8] c"%d\0A\00", align 1

; Function Attrs: nounwind sspstrong uwtable
define dso_local void @main() local_unnamed_addr #0 {
  %1 = alloca [50 x [32 x i8]], align 16
  %2 = alloca i32, align 4
  %3 = getelementptr inbounds [50 x [32 x i8]], [50 x [32 x i8]]* %1, i64 0, i64 0, i64 0
  call void @llvm.lifetime.start.p0i8(i64 1600, i8* nonnull %3) #5
  %4 = bitcast i32* %2 to i8*
  call void @llvm.lifetime.start.p0i8(i64 4, i8* nonnull %4) #5
  %5 = call i32 (i8*, ...) @__isoc99_scanf(i8* getelementptr inbounds ([4 x i8], [4 x i8]* @.str, i64 0, i64 0), i32* nonnull %2)
  %6 = load i32, i32* %2, align 4, !tbaa !5
  %7 = icmp sgt i32 %6, 0
  br i1 %7, label %12, label %73

8:                                                ; preds = %12
  %9 = icmp sgt i32 %17, 0
  br i1 %9, label %10, label %73

10:                                               ; preds = %8
  %11 = zext i32 %17 to i64
  br label %21

12:                                               ; preds = %0, %12
  %13 = phi i64 [ %16, %12 ], [ 0, %0 ]
  %14 = getelementptr inbounds [50 x [32 x i8]], [50 x [32 x i8]]* %1, i64 0, i64 %13, i64 0
  %15 = call i32 (i8*, ...) bitcast (i32 (...)* @gets to i32 (i8*, ...)*)(i8* nonnull %14) #5
  %16 = add nuw nsw i64 %13, 1
  %17 = load i32, i32* %2, align 4, !tbaa !5
  %18 = sext i32 %17 to i64
  %19 = icmp slt i64 %16, %18
  br i1 %19, label %12, label %8, !llvm.loop !9

20:                                               ; preds = %62
  br i1 %9, label %65, label %73

21:                                               ; preds = %10, %62
  %22 = phi i64 [ 0, %10 ], [ %63, %62 ]
  %23 = getelementptr inbounds [50 x [32 x i8]], [50 x [32 x i8]]* %1, i64 0, i64 %22, i64 0
  %24 = call i64 @strlen(i8* noundef nonnull %23) #6
  %25 = trunc i64 %24 to i32
  %26 = icmp sgt i32 %25, 2
  br i1 %26, label %27, label %62

27:                                               ; preds = %21
  %28 = add i64 %24, 4294967295
  %29 = and i64 %28, 4294967295
  %30 = getelementptr inbounds [50 x [32 x i8]], [50 x [32 x i8]]* %1, i64 0, i64 %22, i64 %29
  %31 = load i8, i8* %30, align 1, !tbaa !11
  switch i8 %31, label %44 [
    i8 114, label %32
    i8 121, label %38
  ]

32:                                               ; preds = %27
  %33 = add i64 %24, 4294967294
  %34 = and i64 %33, 4294967295
  %35 = getelementptr inbounds [50 x [32 x i8]], [50 x [32 x i8]]* %1, i64 0, i64 %22, i64 %34
  %36 = load i8, i8* %35, align 1, !tbaa !11
  %37 = icmp eq i8 %36, 101
  br i1 %37, label %60, label %62

38:                                               ; preds = %27
  %39 = add i64 %24, 4294967294
  %40 = and i64 %39, 4294967295
  %41 = getelementptr inbounds [50 x [32 x i8]], [50 x [32 x i8]]* %1, i64 0, i64 %22, i64 %40
  %42 = load i8, i8* %41, align 1, !tbaa !11
  %43 = icmp eq i8 %42, 108
  br i1 %43, label %60, label %62

44:                                               ; preds = %27
  %45 = icmp sgt i32 %25, 3
  %46 = icmp eq i8 %31, 103
  %47 = select i1 %45, i1 %46, i1 false
  br i1 %47, label %48, label %62

48:                                               ; preds = %44
  %49 = add i64 %24, 4294967294
  %50 = and i64 %49, 4294967295
  %51 = getelementptr inbounds [50 x [32 x i8]], [50 x [32 x i8]]* %1, i64 0, i64 %22, i64 %50
  %52 = load i8, i8* %51, align 1, !tbaa !11
  %53 = icmp eq i8 %52, 110
  br i1 %53, label %54, label %62

54:                                               ; preds = %48
  %55 = add i64 %24, 4294967293
  %56 = and i64 %55, 4294967295
  %57 = getelementptr inbounds [50 x [32 x i8]], [50 x [32 x i8]]* %1, i64 0, i64 %22, i64 %56
  %58 = load i8, i8* %57, align 1, !tbaa !11
  %59 = icmp eq i8 %58, 105
  br i1 %59, label %60, label %62

60:                                               ; preds = %54, %38, %32
  %61 = phi i8* [ %35, %32 ], [ %41, %38 ], [ %57, %54 ]
  store i8 0, i8* %61, align 1, !tbaa !11
  br label %62

62:                                               ; preds = %60, %38, %32, %21, %48, %54, %44
  %63 = add nuw nsw i64 %22, 1
  %64 = icmp eq i64 %63, %11
  br i1 %64, label %20, label %21, !llvm.loop !12

65:                                               ; preds = %20, %65
  %66 = phi i64 [ %69, %65 ], [ 0, %20 ]
  %67 = getelementptr inbounds [50 x [32 x i8]], [50 x [32 x i8]]* %1, i64 0, i64 %66, i64 0
  %68 = call i32 @puts(i8* nonnull %67)
  %69 = add nuw nsw i64 %66, 1
  %70 = load i32, i32* %2, align 4, !tbaa !5
  %71 = sext i32 %70 to i64
  %72 = icmp slt i64 %69, %71
  br i1 %72, label %65, label %73, !llvm.loop !13

73:                                               ; preds = %65, %8, %0, %20
  call void @llvm.lifetime.end.p0i8(i64 4, i8* nonnull %4) #5
  call void @llvm.lifetime.end.p0i8(i64 1600, i8* nonnull %3) #5
  ret void
}

; Function Attrs: argmemonly mustprogress nofree nosync nounwind willreturn
declare void @llvm.lifetime.start.p0i8(i64 immarg, i8* nocapture) #1

; Function Attrs: nofree nounwind
declare noundef i32 @__isoc99_scanf(i8* nocapture noundef readonly, ...) local_unnamed_addr #2

declare i32 @gets(...) local_unnamed_addr #3

; Function Attrs: argmemonly mustprogress nofree nounwind readonly willreturn
declare i64 @strlen(i8* nocapture) local_unnamed_addr #4

; Function Attrs: nofree nounwind
declare noundef i32 @puts(i8* nocapture noundef readonly) local_unnamed_addr #2

; Function Attrs: argmemonly mustprogress nofree nosync nounwind willreturn
declare void @llvm.lifetime.end.p0i8(i64 immarg, i8* nocapture) #1


!llvm.module.flags = !{!0, !1, !2, !3}
!llvm.ident = !{!4}

!0 = !{i32 1, !"wchar_size", i32 4}
!1 = !{i32 7, !"PIC Level", i32 2}
!2 = !{i32 7, !"PIE Level", i32 2}
!3 = !{i32 7, !"uwtable", i32 1}
!4 = !{!"clang version 13.0.0"}
!5 = !{!6, !6, i64 0}
!6 = !{!"int", !7, i64 0}
!7 = !{!"omnipotent char", !8, i64 0}
!8 = !{!"Simple C/C++ TBAA"}
!9 = distinct !{!9, !10}
!10 = !{!"llvm.loop.mustprogress"}
!11 = !{!7, !7, i64 0}
!12 = distinct !{!12, !10}
!13 = distinct !{!13, !10}
